target datalayout = "e-m:e-p270:32:32-p271:32:32-p272:64:64-i64:64-i128:128-f80:128-n8:16:32:64-S128"
target triple = "x86_64-pc-linux-gnu"

%struct.dt_pthread_mutex_t = type { %union.pthread_mutex_t }
%union.pthread_mutex_t = type { %struct.__pthread_mutex_s }
%struct.__pthread_mutex_s = type { i32, i32, i32, i32, i32, i16, i16, %struct.__pthread_internal_list }
%struct.__pthread_internal_list = type { ptr, ptr }
%struct.dt_iop_module_t = type { i32, ptr, ptr, ptr, ptr, ptr, ptr, ptr, ptr, ptr, ptr, ptr, ptr, ptr, ptr, ptr, ptr, ptr, ptr, ptr, ptr, ptr, ptr, ptr, ptr, ptr, ptr, ptr, ptr, ptr, ptr, ptr, ptr, ptr, ptr, ptr, ptr, ptr, ptr, ptr, ptr, ptr, ptr, ptr, ptr, ptr, ptr, ptr, ptr, ptr, ptr, ptr, ptr, ptr, ptr, ptr, ptr, [20 x i8], i32, i32, i32, i32, i32, i32, i32, [8 x i8], [4 x float], [4 x float], [4 x float], [4 x float], [4 x float], [4 x float], ptr, %struct.dt_dev_histogram_stats_t, [4 x i32], i32, i32, ptr, i32, i32, ptr, ptr, i32, ptr, %struct.dt_pthread_mutex_t, ptr, ptr, ptr, ptr, %struct.anon, ptr, ptr, ptr, ptr, ptr, ptr, ptr, i32, ptr, ptr, ptr, ptr, ptr, ptr, ptr, i32, ptr, i32, [128 x i8], i32, ptr, ptr, i32, [12 x i8] }
%struct.dt_dev_histogram_stats_t = type { i32, i64, i32, i32 }
%struct.anon = type { %struct.anon.0, %struct.anon.1 }
%struct.anon.0 = type { ptr, ptr }
%struct.anon.1 = type { ptr, i32 }
%struct.dt_iop_gui_blend_data_t = type { i32, i32, i32, i32, i32, i32, i32, ptr, ptr, ptr, ptr, ptr, ptr, ptr, ptr, ptr, ptr, ptr, ptr, ptr, [2 x %struct.dt_iop_gui_blendif_filter_t], ptr, ptr, ptr, ptr, ptr, ptr, ptr, ptr, ptr, ptr, ptr, ptr, i32, i32, ptr, i32, [8 x [2 x i32]], i32, i32, ptr, i32, ptr, ptr, ptr, [5 x ptr], [5 x i32], ptr, ptr, ptr, i32, ptr, ptr, i32, %struct.dt_pthread_mutex_t }
%struct.dt_iop_gui_blendif_filter_t = type { ptr, ptr, [4 x ptr], ptr, ptr, ptr }

; Function Attrs: nounwind uwtable
define internal void @_blendif_show_output_channels(ptr noundef %0, ptr noundef %1) #0 {
  %3 = alloca ptr, align 8
  %4 = alloca ptr, align 8
  %5 = alloca ptr, align 8
  %6 = alloca i32, align 4
  store ptr %0, ptr %3, align 8, !tbaa !309
  store ptr %1, ptr %4, align 8, !tbaa !6
  call void @llvm.lifetime.start.p0(i64 8, ptr %5) #11
  %7 = load ptr, ptr %4, align 8, !tbaa !6
  %8 = getelementptr inbounds nuw %struct.dt_iop_module_t, ptr %7, i32 0, i32 88
  %9 = load ptr, ptr %8, align 8, !tbaa !15
  store ptr %9, ptr %5, align 8, !tbaa !31
  %10 = load ptr, ptr %5, align 8, !tbaa !31
  %11 = icmp ne ptr %10, null
  br i1 %11, label %12, label %22

12:                                               ; preds = %2
  %13 = load ptr, ptr %5, align 8, !tbaa !31
  %14 = getelementptr inbounds nuw %struct.dt_iop_gui_blend_data_t, ptr %13, i32 0, i32 0
  %15 = load i32, ptr %14, align 8, !tbaa !155
  %16 = icmp ne i32 %15, 0
  br i1 %16, label %17, label %22

17:                                               ; preds = %12
  %18 = load ptr, ptr %5, align 8, !tbaa !31
  %19 = getelementptr inbounds nuw %struct.dt_iop_gui_blend_data_t, ptr %18, i32 0, i32 2
  %20 = load i32, ptr %19, align 8, !tbaa !156
  %21 = icmp ne i32 %20, 0
  br i1 %21, label %23, label %22

22:                                               ; preds = %17, %12, %2
  store i32 1, ptr %6, align 4
  br label %33

23:                                               ; preds = %17
  %24 = load ptr, ptr %5, align 8, !tbaa !31
  %25 = getelementptr inbounds nuw %struct.dt_iop_gui_blend_data_t, ptr %24, i32 0, i32 41
  %26 = load i32, ptr %25, align 8, !tbaa !81
  %27 = icmp ne i32 %26, 0
  br i1 %27, label %32, label %28

28:                                               ; preds = %23
  %29 = load ptr, ptr %5, align 8, !tbaa !31
  %30 = getelementptr inbounds nuw %struct.dt_iop_gui_blend_data_t, ptr %29, i32 0, i32 41
  store i32 1, ptr %30, align 8, !tbaa !81
  %31 = load ptr, ptr %4, align 8, !tbaa !6
  call void @dt_iop_gui_update(ptr noundef %31)
  br label %32

32:                                               ; preds = %28, %23
  store i32 0, ptr %6, align 4
  br label %33

33:                                               ; preds = %32, %22
  call void @llvm.lifetime.end.p0(i64 8, ptr %5) #11
  %34 = load i32, ptr %6, align 4
  switch i32 %34, label %36 [
    i32 0, label %35
    i32 1, label %35
  ]

35:                                               ; preds = %33, %33
  ret void

36:                                               ; preds = %33
  unreachable
}