; Function Attrs: nounwind uwtable
define internal void @_blendif_show_output_channels(ptr readnone captures(none) %0, ptr noundef %1) #0 {
  %3 = getelementptr inbounds nuw i8, ptr %1, i64 776
  %4 = load ptr, ptr %3, align 8, !tbaa !6
  %.not = icmp eq ptr %4, null
  br i1 %.not, label %14, label %5

5:                                                ; preds = %2
  %6 = load i32, ptr %4, align 8, !tbaa !141
  %.not7 = icmp eq i32 %6, 0
  br i1 %.not7, label %14, label %7

7:                                                ; preds = %5
  %8 = getelementptr inbounds nuw i8, ptr %4, i64 8
  %9 = load i32, ptr %8, align 8, !tbaa !142
  %.not8 = icmp eq i32 %9, 0
  br i1 %.not8, label %14, label %10

10:                                               ; preds = %7
  %11 = getelementptr inbounds nuw i8, ptr %4, i64 480
  %12 = load i32, ptr %11, align 8, !tbaa !73
  %.not9 = icmp eq i32 %12, 0
  br i1 %.not9, label %13, label %14

13:                                               ; preds = %10
  store i32 1, ptr %11, align 8, !tbaa !73
  tail call void @dt_iop_gui_update(ptr noundef nonnull %1) #18
  br label %14

14:                                               ; preds = %10, %13, %2, %5, %7
  ret void
}